target datalayout = "e-m:e-p270:32:32-p271:32:32-p272:64:64-i64:64-i128:128-f80:128-n8:16:32:64-S128"
target triple = "x86_64-pc-linux-gnu"

%struct.asn1_string_st = type { i32, i32, ptr, i64 }

@.str = private unnamed_addr constant [32 x i8] c"../openssl/crypto/x509/v3_utl.c\00", align 1

; Function Attrs: inlinehint nounwind uwtable
define internal ptr @ossl_check_OPENSSL_STRING_freefunc_type(ptr noundef %0) #4 {
  %2 = alloca ptr, align 8
  store ptr %0, ptr %2, align 8, !tbaa !12
  %3 = load ptr, ptr %2, align 8, !tbaa !12
  ret ptr %3
}

; Function Attrs: inlinehint nounwind uwtable
define internal ptr @ossl_check_OPENSSL_STRING_type(ptr noundef %0) #4 {
  %2 = alloca ptr, align 8
  store ptr %0, ptr %2, align 8, !tbaa !3
  %3 = load ptr, ptr %2, align 8, !tbaa !3
  ret ptr %3
}

; Function Attrs: inlinehint nounwind uwtable
define internal ptr @ossl_check_OPENSSL_STRING_sk_type(ptr noundef %0) #4 {
  %2 = alloca ptr, align 8
  store ptr %0, ptr %2, align 8, !tbaa !42
  %3 = load ptr, ptr %2, align 8, !tbaa !42
  ret ptr %3
}

; Function Attrs: nounwind uwtable
define void @X509_email_free(ptr noundef %0) #0 {
  %2 = alloca ptr, align 8
  store ptr %0, ptr %2, align 8, !tbaa !42
  %3 = load ptr, ptr %2, align 8, !tbaa !42
  %4 = call ptr @ossl_check_OPENSSL_STRING_sk_type(ptr noundef %3)
  %5 = call ptr @ossl_check_OPENSSL_STRING_freefunc_type(ptr noundef @str_free)
  call void @OPENSSL_sk_pop_free(ptr noundef %4, ptr noundef %5)
  ret void
}

; Function Attrs: inlinehint nounwind uwtable
define internal ptr @ossl_check_OPENSSL_STRING_compfunc_type(ptr noundef %0) #4 {
  %2 = alloca ptr, align 8
  store ptr %0, ptr %2, align 8, !tbaa !12
  %3 = load ptr, ptr %2, align 8, !tbaa !12
  ret ptr %3
}

; Function Attrs: nounwind uwtable
define internal i32 @append_ia5(ptr noundef %0, ptr noundef %1) #0 {
  %3 = alloca i32, align 4
  %4 = alloca ptr, align 8
  %5 = alloca ptr, align 8
  %6 = alloca ptr, align 8
  %7 = alloca i32, align 4
  store ptr %0, ptr %4, align 8, !tbaa !63
  store ptr %1, ptr %5, align 8, !tbaa !23
  call void @llvm.lifetime.start.p0(i64 8, ptr %6) #8
  %8 = load ptr, ptr %5, align 8, !tbaa !23
  %9 = getelementptr inbounds nuw %struct.asn1_string_st, ptr %8, i32 0, i32 1
  %10 = load i32, ptr %9, align 4, !tbaa !28
  %11 = icmp ne i32 %10, 22
  br i1 %11, label %12, label %13

12:                                               ; preds = %2
  store i32 1, ptr %3, align 4
  store i32 1, ptr %7, align 4
  br label %87

13:                                               ; preds = %2
  %14 = load ptr, ptr %5, align 8, !tbaa !23
  %15 = getelementptr inbounds nuw %struct.asn1_string_st, ptr %14, i32 0, i32 2
  %16 = load ptr, ptr %15, align 8, !tbaa !65
  %17 = icmp eq ptr %16, null
  br i1 %17, label %23, label %18

18:                                               ; preds = %13
  %19 = load ptr, ptr %5, align 8, !tbaa !23
  %20 = getelementptr inbounds nuw %struct.asn1_string_st, ptr %19, i32 0, i32 0
  %21 = load i32, ptr %20, align 8, !tbaa !66
  %22 = icmp eq i32 %21, 0
  br i1 %22, label %23, label %24

23:                                               ; preds = %18, %13
  store i32 1, ptr %3, align 4
  store i32 1, ptr %7, align 4
  br label %87

24:                                               ; preds = %18
  %25 = load ptr, ptr %5, align 8, !tbaa !23
  %26 = getelementptr inbounds nuw %struct.asn1_string_st, ptr %25, i32 0, i32 2
  %27 = load ptr, ptr %26, align 8, !tbaa !65
  %28 = load ptr, ptr %5, align 8, !tbaa !23
  %29 = getelementptr inbounds nuw %struct.asn1_string_st, ptr %28, i32 0, i32 0
  %30 = load i32, ptr %29, align 8, !tbaa !66
  %31 = sext i32 %30 to i64
  %32 = call ptr @memchr(ptr noundef %27, i32 noundef 0, i64 noundef %31) #7
  %33 = icmp ne ptr %32, null
  br i1 %33, label %34, label %35

34:                                               ; preds = %24
  store i32 1, ptr %3, align 4
  store i32 1, ptr %7, align 4
  br label %87

35:                                               ; preds = %24
  %36 = load ptr, ptr %4, align 8, !tbaa !63
  %37 = load ptr, ptr %36, align 8, !tbaa !42
  %38 = icmp eq ptr %37, null
  br i1 %38, label %39, label %43

39:                                               ; preds = %35
  %40 = call ptr @ossl_check_OPENSSL_STRING_compfunc_type(ptr noundef @sk_strcmp)
  %41 = call ptr @OPENSSL_sk_new(ptr noundef %40)
  %42 = load ptr, ptr %4, align 8, !tbaa !63
  store ptr %41, ptr %42, align 8, !tbaa !42
  br label %43

43:                                               ; preds = %39, %35
  %44 = load ptr, ptr %4, align 8, !tbaa !63
  %45 = load ptr, ptr %44, align 8, !tbaa !42
  %46 = icmp eq ptr %45, null
  br i1 %46, label %47, label %48

47:                                               ; preds = %43
  store i32 0, ptr %3, align 4
  store i32 1, ptr %7, align 4
  br label %87

48:                                               ; preds = %43
  %49 = load ptr, ptr %5, align 8, !tbaa !23
  %50 = getelementptr inbounds nuw %struct.asn1_string_st, ptr %49, i32 0, i32 2
  %51 = load ptr, ptr %50, align 8, !tbaa !65
  %52 = load ptr, ptr %5, align 8, !tbaa !23
  %53 = getelementptr inbounds nuw %struct.asn1_string_st, ptr %52, i32 0, i32 0
  %54 = load i32, ptr %53, align 8, !tbaa !66
  %55 = sext i32 %54 to i64
  %56 = call noalias ptr @CRYPTO_strndup(ptr noundef %51, i64 noundef %55, ptr noundef @.str, i32 noundef 549)
  store ptr %56, ptr %6, align 8, !tbaa !3
  %57 = load ptr, ptr %6, align 8, !tbaa !3
  %58 = icmp eq ptr %57, null
  br i1 %58, label %59, label %63

59:                                               ; preds = %48
  %60 = load ptr, ptr %4, align 8, !tbaa !63
  %61 = load ptr, ptr %60, align 8, !tbaa !42
  call void @X509_email_free(ptr noundef %61)
  %62 = load ptr, ptr %4, align 8, !tbaa !63
  store ptr null, ptr %62, align 8, !tbaa !42
  store i32 0, ptr %3, align 4
  store i32 1, ptr %7, align 4
  br label %87

63:                                               ; preds = %48
  %64 = load ptr, ptr %4, align 8, !tbaa !63
  %65 = load ptr, ptr %64, align 8, !tbaa !42
  %66 = call ptr @ossl_check_OPENSSL_STRING_sk_type(ptr noundef %65)
  %67 = load ptr, ptr %6, align 8, !tbaa !3
  %68 = call ptr @ossl_check_OPENSSL_STRING_type(ptr noundef %67)
  %69 = call i32 @OPENSSL_sk_find(ptr noundef %66, ptr noundef %68)
  %70 = icmp ne i32 %69, -1
  br i1 %70, label %71, label %73

71:                                               ; preds = %63
  %72 = load ptr, ptr %6, align 8, !tbaa !3
  call void @CRYPTO_free(ptr noundef %72, ptr noundef @.str, i32 noundef 558)
  store i32 1, ptr %3, align 4
  store i32 1, ptr %7, align 4
  br label %87

73:                                               ; preds = %63
  %74 = load ptr, ptr %4, align 8, !tbaa !63
  %75 = load ptr, ptr %74, align 8, !tbaa !42
  %76 = call ptr @ossl_check_OPENSSL_STRING_sk_type(ptr noundef %75)
  %77 = load ptr, ptr %6, align 8, !tbaa !3
  %78 = call ptr @ossl_check_OPENSSL_STRING_type(ptr noundef %77)
  %79 = call i32 @OPENSSL_sk_push(ptr noundef %76, ptr noundef %78)
  %80 = icmp ne i32 %79, 0
  br i1 %80, label %86, label %81

81:                                               ; preds = %73
  %82 = load ptr, ptr %6, align 8, !tbaa !3
  call void @CRYPTO_free(ptr noundef %82, ptr noundef @.str, i32 noundef 562)
  %83 = load ptr, ptr %4, align 8, !tbaa !63
  %84 = load ptr, ptr %83, align 8, !tbaa !42
  call void @X509_email_free(ptr noundef %84)
  %85 = load ptr, ptr %4, align 8, !tbaa !63
  store ptr null, ptr %85, align 8, !tbaa !42
  store i32 0, ptr %3, align 4
  store i32 1, ptr %7, align 4
  br label %87

86:                                               ; preds = %73
  store i32 1, ptr %3, align 4
  store i32 1, ptr %7, align 4
  br label %87

87:                                               ; preds = %86, %81, %71, %59, %47, %34, %23, %12
  call void @llvm.lifetime.end.p0(i64 8, ptr %6) #8
  %88 = load i32, ptr %3, align 4
  ret i32 %88
}