; Function Attrs: nounwind uwtable
define internal fastcc range(i32 0, 2) i32 @append_ia5(ptr noundef nonnull captures(none) %0, ptr noundef readonly captures(none) %1) unnamed_addr #0 {
  %3 = getelementptr inbounds nuw i8, ptr %1, i64 4
  %4 = load i32, ptr %3, align 4, !tbaa !16
  %.not = icmp eq i32 %4, 22
  br i1 %.not, label %5, label %34

5:                                                ; preds = %2
  %6 = getelementptr inbounds nuw i8, ptr %1, i64 8
  %7 = load ptr, ptr %6, align 8, !tbaa !39
  %8 = icmp eq ptr %7, null
  br i1 %8, label %34, label %9

9:                                                ; preds = %5
  %10 = load i32, ptr %1, align 8, !tbaa !40
  %11 = icmp eq i32 %10, 0
  br i1 %11, label %34, label %12

12:                                               ; preds = %9
  %13 = sext i32 %10 to i64
  %14 = tail call ptr @memchr(ptr noundef nonnull %7, i32 noundef 0, i64 noundef %13) #11
  %.not24 = icmp eq ptr %14, null
  br i1 %.not24, label %15, label %34

15:                                               ; preds = %12
  %16 = load ptr, ptr %0, align 8, !tbaa !27
  %17 = icmp eq ptr %16, null
  br i1 %17, label %18, label %.thread

18:                                               ; preds = %15
  %19 = tail call ptr @OPENSSL_sk_new(ptr noundef nonnull @sk_strcmp) #12
  store ptr %19, ptr %0, align 8, !tbaa !27
  %20 = icmp eq ptr %19, null
  br i1 %20, label %34, label %..thread_crit_edge

..thread_crit_edge:                               ; preds = %18
  %.pre = load ptr, ptr %6, align 8, !tbaa !39
  %.pre27 = load i32, ptr %1, align 8, !tbaa !40
  %.pre28 = sext i32 %.pre27 to i64
  br label %.thread

.thread:                                          ; preds = %..thread_crit_edge, %15
  %.pre-phi = phi i64 [ %.pre28, %..thread_crit_edge ], [ %13, %15 ]
  %21 = phi ptr [ %.pre, %..thread_crit_edge ], [ %7, %15 ]
  %22 = tail call noalias ptr @CRYPTO_strndup(ptr noundef %21, i64 noundef %.pre-phi, ptr noundef nonnull @.str, i32 noundef 549) #12
  %23 = icmp eq ptr %22, null
  %24 = load ptr, ptr %0, align 8, !tbaa !27
  br i1 %23, label %25, label %26

25:                                               ; preds = %.thread
  tail call void @OPENSSL_sk_pop_free(ptr noundef %24, ptr noundef nonnull @str_free) #12
  store ptr null, ptr %0, align 8, !tbaa !27
  br label %34

26:                                               ; preds = %.thread
  %27 = tail call i32 @OPENSSL_sk_find(ptr noundef %24, ptr noundef nonnull %22) #12
  %.not25 = icmp eq i32 %27, -1
  br i1 %.not25, label %29, label %28

28:                                               ; preds = %26
  tail call void @CRYPTO_free(ptr noundef nonnull %22, ptr noundef nonnull @.str, i32 noundef 558) #12
  br label %34

29:                                               ; preds = %26
  %30 = load ptr, ptr %0, align 8, !tbaa !27
  %31 = tail call i32 @OPENSSL_sk_push(ptr noundef %30, ptr noundef nonnull %22) #12
  %.not26 = icmp eq i32 %31, 0
  br i1 %.not26, label %32, label %34

32:                                               ; preds = %29
  tail call void @CRYPTO_free(ptr noundef nonnull %22, ptr noundef nonnull @.str, i32 noundef 562) #12
  %33 = load ptr, ptr %0, align 8, !tbaa !27
  tail call void @OPENSSL_sk_pop_free(ptr noundef %33, ptr noundef nonnull @str_free) #12
  store ptr null, ptr %0, align 8, !tbaa !27
  br label %34

34:                                               ; preds = %29, %18, %12, %5, %9, %2, %32, %28, %25
  %.0 = phi i32 [ 0, %25 ], [ 1, %28 ], [ 0, %32 ], [ 1, %2 ], [ 1, %9 ], [ 1, %5 ], [ 1, %12 ], [ 0, %18 ], [ 1, %29 ]
  ret i32 %.0
}